target datalayout = "e-m:e-p270:32:32-p271:32:32-p272:64:64-i64:64-i128:128-f80:128-n8:16:32:64-S128"
target triple = "x86_64-pc-linux-gnu"

; Function Attrs: nounwind uwtable
define dso_local i32 @lre_case_conv(ptr noundef %0, i32 noundef %1, i32 noundef %2) #0 {
  %4 = alloca i32, align 4
  %5 = alloca ptr, align 8
  %6 = alloca i32, align 4
  %7 = alloca i32, align 4
  %8 = alloca i32, align 4
  %9 = alloca i32, align 4
  %10 = alloca i32, align 4
  %11 = alloca i32, align 4
  %12 = alloca i32, align 4
  %13 = alloca i32, align 4
  store ptr %0, ptr %5, align 8
  store i32 %1, ptr %6, align 4
  store i32 %2, ptr %7, align 4
  %14 = load i32, ptr %6, align 4
  %15 = icmp ult i32 %14, 128
  br i1 %15, label %16, label %42

16:                                               ; preds = %3
  %17 = load i32, ptr %7, align 4
  %18 = icmp ne i32 %17, 0
  br i1 %18, label %19, label %30

19:                                               ; preds = %16
  %20 = load i32, ptr %6, align 4
  %21 = icmp uge i32 %20, 65
  br i1 %21, label %22, label %29

22:                                               ; preds = %19
  %23 = load i32, ptr %6, align 4
  %24 = icmp ule i32 %23, 90
  br i1 %24, label %25, label %29

25:                                               ; preds = %22
  %26 = load i32, ptr %6, align 4
  %27 = sub i32 %26, 65
  %28 = add i32 %27, 97
  store i32 %28, ptr %6, align 4
  br label %29

29:                                               ; preds = %25, %22, %19
  br label %41

30:                                               ; preds = %16
  %31 = load i32, ptr %6, align 4
  %32 = icmp uge i32 %31, 97
  br i1 %32, label %33, label %40

33:                                               ; preds = %30
  %34 = load i32, ptr %6, align 4
  %35 = icmp ule i32 %34, 122
  br i1 %35, label %36, label %40

36:                                               ; preds = %33
  %37 = load i32, ptr %6, align 4
  %38 = sub i32 %37, 97
  %39 = add i32 %38, 65
  store i32 %39, ptr %6, align 4
  br label %40

40:                                               ; preds = %36, %33, %30
  br label %41

41:                                               ; preds = %40, %29
  br label %86

42:                                               ; preds = %3
  store i32 0, ptr %12, align 4
  store i32 369, ptr %13, align 4
  br label %43

43:                                               ; preds = %84, %42
  %44 = load i32, ptr %12, align 4
  %45 = load i32, ptr %13, align 4
  %46 = icmp sle i32 %44, %45
  br i1 %46, label %47, label %85

47:                                               ; preds = %43
  %48 = load i32, ptr %13, align 4
  %49 = load i32, ptr %12, align 4
  %50 = add i32 %48, %49
  %51 = udiv i32 %50, 2
  store i32 %51, ptr %11, align 4
  %52 = load i32, ptr %11, align 4
  %53 = sext i32 %52 to i64
  %54 = getelementptr [370 x i32], ptr @case_conv_table1, i64 0, i64 %53
  %55 = load i32, ptr %54, align 4
  store i32 %55, ptr %8, align 4
  %56 = load i32, ptr %8, align 4
  %57 = lshr i32 %56, 15
  store i32 %57, ptr %9, align 4
  %58 = load i32, ptr %8, align 4
  %59 = lshr i32 %58, 8
  %60 = and i32 %59, 127
  store i32 %60, ptr %10, align 4
  %61 = load i32, ptr %6, align 4
  %62 = load i32, ptr %9, align 4
  %63 = icmp ult i32 %61, %62
  br i1 %63, label %64, label %67

64:                                               ; preds = %47
  %65 = load i32, ptr %11, align 4
  %66 = sub i32 %65, 1
  store i32 %66, ptr %13, align 4
  br label %84

67:                                               ; preds = %47
  %68 = load i32, ptr %6, align 4
  %69 = load i32, ptr %9, align 4
  %70 = load i32, ptr %10, align 4
  %71 = add i32 %69, %70
  %72 = icmp uge i32 %68, %71
  br i1 %72, label %73, label %76

73:                                               ; preds = %67
  %74 = load i32, ptr %11, align 4
  %75 = add i32 %74, 1
  store i32 %75, ptr %12, align 4
  br label %83

76:                                               ; preds = %67
  %77 = load ptr, ptr %5, align 8
  %78 = load i32, ptr %6, align 4
  %79 = load i32, ptr %7, align 4
  %80 = load i32, ptr %11, align 4
  %81 = load i32, ptr %8, align 4
  %82 = call i32 @lre_case_conv_entry(ptr noundef %77, i32 noundef %78, i32 noundef %79, i32 noundef %80, i32 noundef %81)
  store i32 %82, ptr %4, align 4
  br label %90

83:                                               ; preds = %73
  br label %84

84:                                               ; preds = %83, %64
  br label %43, !llvm.loop !7

85:                                               ; preds = %43
  br label %86

86:                                               ; preds = %85, %41
  %87 = load i32, ptr %6, align 4
  %88 = load ptr, ptr %5, align 8
  %89 = getelementptr i32, ptr %88, i64 0
  store i32 %87, ptr %89, align 4
  store i32 1, ptr %4, align 4
  br label %90

90:                                               ; preds = %86, %76
  %91 = load i32, ptr %4, align 4
  ret i32 %91
}