; Function Attrs: nofree nosync nounwind memory(argmem: write) uwtable
define dso_local noundef i32 @lre_case_conv(ptr nocapture noundef writeonly %0, i32 noundef %1, i32 noundef %2) local_unnamed_addr #0 {
  %4 = icmp ult i32 %1, 128
  br i1 %4, label %5, label %.preheader

5:                                                ; preds = %3
  %.not39 = icmp eq i32 %2, 0
  br i1 %.not39, label %9, label %6

6:                                                ; preds = %5
  %7 = add nsw i32 %1, -65
  %or.cond = icmp ult i32 %7, 26
  %8 = or disjoint i32 %1, 32
  %spec.select = select i1 %or.cond, i32 %8, i32 %1
  br label %.loopexit

9:                                                ; preds = %5
  %10 = add nsw i32 %1, -97
  %or.cond3 = icmp ult i32 %10, 26
  %11 = add nsw i32 %1, -32
  %spec.select40 = select i1 %or.cond3, i32 %11, i32 %1
  br label %.loopexit

.preheader:                                       ; preds = %3, %29
  %.043 = phi i32 [ %.1, %29 ], [ 369, %3 ]
  %.03242 = phi i32 [ %.133, %29 ], [ 0, %3 ]
  %12 = add i32 %.043, %.03242
  %13 = lshr i32 %12, 1
  %14 = zext nneg i32 %13 to i64
  %15 = getelementptr [370 x i32], ptr @case_conv_table1, i64 0, i64 %14
  %16 = load i32, ptr %15, align 4
  %17 = lshr i32 %16, 15
  %18 = icmp ugt i32 %17, %1
  br i1 %18, label %19, label %21

19:                                               ; preds = %.preheader
  %20 = add nsw i32 %13, -1
  br label %29

21:                                               ; preds = %.preheader
  %22 = lshr i32 %16, 8
  %23 = and i32 %22, 127
  %24 = add nuw nsw i32 %23, %17
  %.not38 = icmp ugt i32 %24, %1
  br i1 %.not38, label %27, label %25

25:                                               ; preds = %21
  %26 = add nuw i32 %13, 1
  br label %29

27:                                               ; preds = %21
  %28 = tail call fastcc i32 @lre_case_conv_entry(ptr noundef %0, i32 noundef %1, i32 noundef %2, i32 noundef %13, i32 noundef %16), !range !7
  br label %30

29:                                               ; preds = %25, %19
  %.133 = phi i32 [ %.03242, %19 ], [ %26, %25 ]
  %.1 = phi i32 [ %20, %19 ], [ %.043, %25 ]
  %.not = icmp sgt i32 %.133, %.1
  br i1 %.not, label %.loopexit, label %.preheader, !llvm.loop !8

.loopexit:                                        ; preds = %29, %9, %6
  %.035 = phi i32 [ %spec.select, %6 ], [ %spec.select40, %9 ], [ %1, %29 ]
  store i32 %.035, ptr %0, align 4
  br label %30

30:                                               ; preds = %.loopexit, %27
  %.034 = phi i32 [ 1, %.loopexit ], [ %28, %27 ]
  ret i32 %.034
}